target datalayout = "e-m:e-p270:32:32-p271:32:32-p272:64:64-i64:64-i128:128-f80:128-n8:16:32:64-S128"
target triple = "x86_64-unknown-linux-gnu"

%"class.q::quantifier_stat" = type { i32, i32, i32, i32, i32, i32, i32, i32, i32, i32, i32, float }

; Function Attrs: mustprogress nounwind uwtable
define hidden void @_ZN1q15quantifier_statC2Ej(ptr noundef nonnull align 4 dereferenceable(48) %this, i32 noundef %generation) unnamed_addr #4 align 2 {
entry:
  %this.addr = alloca ptr, align 8
  %generation.addr = alloca i32, align 4
  store ptr %this, ptr %this.addr, align 8
  store i32 %generation, ptr %generation.addr, align 4
  %this1 = load ptr, ptr %this.addr, align 8
  %m_size = getelementptr inbounds %"class.q::quantifier_stat", ptr %this1, i32 0, i32 0
  store i32 0, ptr %m_size, align 4
  %m_depth = getelementptr inbounds %"class.q::quantifier_stat", ptr %this1, i32 0, i32 1
  store i32 0, ptr %m_depth, align 4
  %m_generation = getelementptr inbounds %"class.q::quantifier_stat", ptr %this1, i32 0, i32 2
  %0 = load i32, ptr %generation.addr, align 4
  store i32 %0, ptr %m_generation, align 4
  %m_case_split_factor = getelementptr inbounds %"class.q::quantifier_stat", ptr %this1, i32 0, i32 3
  store i32 1, ptr %m_case_split_factor, align 4
  %m_num_nested_quantifiers = getelementptr inbounds %"class.q::quantifier_stat", ptr %this1, i32 0, i32 4
  store i32 0, ptr %m_num_nested_quantifiers, align 4
  %m_num_instances = getelementptr inbounds %"class.q::quantifier_stat", ptr %this1, i32 0, i32 5
  store i32 0, ptr %m_num_instances, align 4
  %m_num_instances_checker_sat = getelementptr inbounds %"class.q::quantifier_stat", ptr %this1, i32 0, i32 6
  store i32 0, ptr %m_num_instances_checker_sat, align 4
  %m_num_instances_simplify_true = getelementptr inbounds %"class.q::quantifier_stat", ptr %this1, i32 0, i32 7
  store i32 0, ptr %m_num_instances_simplify_true, align 4
  %m_num_instances_curr_search = getelementptr inbounds %"class.q::quantifier_stat", ptr %this1, i32 0, i32 8
  store i32 0, ptr %m_num_instances_curr_search, align 4
  %m_num_instances_curr_branch = getelementptr inbounds %"class.q::quantifier_stat", ptr %this1, i32 0, i32 9
  store i32 0, ptr %m_num_instances_curr_branch, align 4
  %m_max_generation = getelementptr inbounds %"class.q::quantifier_stat", ptr %this1, i32 0, i32 10
  store i32 0, ptr %m_max_generation, align 4
  %m_max_cost = getelementptr inbounds %"class.q::quantifier_stat", ptr %this1, i32 0, i32 11
  store float 0.000000e+00, ptr %m_max_cost, align 4
  ret void
}