; Function Attrs: mustprogress nofree norecurse nosync nounwind willreturn memory(argmem: write) uwtable
define hidden void @_ZN1q15quantifier_statC2Ej(ptr nocapture noundef nonnull writeonly align 4 dereferenceable(48) %this, i32 noundef %generation) unnamed_addr #3 align 2 {
entry:
  store i32 0, ptr %this, align 4
  %m_depth = getelementptr inbounds i8, ptr %this, i64 4
  store i32 0, ptr %m_depth, align 4
  %m_generation = getelementptr inbounds i8, ptr %this, i64 8
  store i32 %generation, ptr %m_generation, align 4
  %m_case_split_factor = getelementptr inbounds i8, ptr %this, i64 12
  store i32 1, ptr %m_case_split_factor, align 4
  %m_num_nested_quantifiers = getelementptr inbounds i8, ptr %this, i64 16
  tail call void @llvm.memset.p0.i64(ptr noundef nonnull align 4 dereferenceable(32) %m_num_nested_quantifiers, i8 0, i64 32, i1 false)
  ret void
}